; Function Attrs: nounwind uwtable
define noalias nonnull ptr @l_repr___at___private_Lean_Meta_Tactic_Simp_SimpCongrTheorems_0__Lean_Meta_reprSimpCongrTheorem____x40_Lean_Meta_Tactic_Simp_SimpCongrTheorems___hyg_53____spec__2(ptr noundef %0) local_unnamed_addr #1 {
  %2 = tail call ptr @l___private_Init_Data_Repr_0__Nat_reprFast(ptr noundef %0) #5
  tail call void @lean_inc_heartbeat() #5
  %3 = tail call noalias ptr @mi_malloc_small(i64 noundef 16) #5
  %4 = icmp eq ptr %3, null
  br i1 %4, label %5, label %lean_alloc_ctor.exit

5:                                                ; preds = %1
  tail call void @lean_internal_panic_out_of_memory() #6
  unreachable

lean_alloc_ctor.exit:                             ; preds = %1
  %6 = getelementptr inbounds nuw i8, ptr %3, i64 4
  store i32 1, ptr %3, align 4, !tbaa !4
  store i32 50397200, ptr %6, align 4
  %7 = getelementptr inbounds nuw i8, ptr %3, i64 8
  store ptr %2, ptr %7, align 8, !tbaa !9
  ret ptr %3
}